target datalayout = "e-m:e-p270:32:32-p271:32:32-p272:64:64-i64:64-i128:128-f80:128-n8:16:32:64-S128"
target triple = "x86_64-pc-linux-gnu"

%struct.WC_PKCS12 = type { ptr, ptr, ptr, i32, i8 }

; Function Attrs: nounwind uwtable
define ptr @wc_PKCS12_new_ex(ptr noundef %0) #0 {
  %2 = alloca ptr, align 8
  %3 = alloca ptr, align 8
  %4 = alloca ptr, align 8
  %5 = alloca i32, align 4
  store ptr %0, ptr %3, align 8, !tbaa !3
  call void @llvm.lifetime.start.p0(i64 8, ptr %4) #7
  %6 = call ptr @wolfSSL_Malloc(i64 noundef 32)
  store ptr %6, ptr %4, align 8, !tbaa !7
  %7 = load ptr, ptr %4, align 8, !tbaa !7
  %8 = icmp eq ptr %7, null
  br i1 %8, label %9, label %13

9:                                                ; preds = %1
  br label %10

10:                                               ; preds = %9
  br label %11

11:                                               ; preds = %10
  br label %12

12:                                               ; preds = %11
  store ptr null, ptr %2, align 8
  store i32 1, ptr %5, align 4
  br label %19

13:                                               ; preds = %1
  %14 = load ptr, ptr %4, align 8, !tbaa !7
  call void @llvm.memset.p0.i64(ptr align 8 %14, i8 0, i64 32, i1 false)
  %15 = load ptr, ptr %3, align 8, !tbaa !3
  %16 = load ptr, ptr %4, align 8, !tbaa !7
  %17 = getelementptr inbounds nuw %struct.WC_PKCS12, ptr %16, i32 0, i32 0
  store ptr %15, ptr %17, align 8, !tbaa !9
  %18 = load ptr, ptr %4, align 8, !tbaa !7
  store ptr %18, ptr %2, align 8
  store i32 1, ptr %5, align 4
  br label %19

19:                                               ; preds = %13, %12
  call void @llvm.lifetime.end.p0(i64 8, ptr %4) #7
  %20 = load ptr, ptr %2, align 8
  ret ptr %20
}

; Function Attrs: nounwind uwtable
define ptr @wc_PKCS12_new() #0 {
  %1 = call ptr @wc_PKCS12_new_ex(ptr noundef null)
  ret ptr %1
}

; Function Attrs: nounwind uwtable
define i32 @wc_d2i_PKCS12_fp(ptr noundef %0, ptr noundef %1) #0 {
  %3 = alloca ptr, align 8
  %4 = alloca ptr, align 8
  %5 = alloca i32, align 4
  %6 = alloca ptr, align 8
  %7 = alloca i64, align 8
  %8 = alloca ptr, align 8
  %9 = alloca i32, align 4
  %10 = alloca ptr, align 8
  store ptr %0, ptr %3, align 8, !tbaa !32
  store ptr %1, ptr %4, align 8, !tbaa !48
  call void @llvm.lifetime.start.p0(i64 4, ptr %5) #7
  store i32 0, ptr %5, align 4, !tbaa !24
  call void @llvm.lifetime.start.p0(i64 8, ptr %6) #7
  store ptr null, ptr %6, align 8, !tbaa !32
  call void @llvm.lifetime.start.p0(i64 8, ptr %7) #7
  store i64 0, ptr %7, align 8, !tbaa !50
  call void @llvm.lifetime.start.p0(i64 8, ptr %8) #7
  store ptr null, ptr %8, align 8, !tbaa !7
  call void @llvm.lifetime.start.p0(i64 4, ptr %9) #7
  store i32 1, ptr %9, align 4, !tbaa !24
  br label %11

11:                                               ; preds = %2
  br label %12

12:                                               ; preds = %11
  br label %13

13:                                               ; preds = %12
  %14 = load ptr, ptr %4, align 8, !tbaa !48
  %15 = icmp eq ptr %14, null
  br i1 %15, label %16, label %20

16:                                               ; preds = %13
  br label %17

17:                                               ; preds = %16
  br label %18

18:                                               ; preds = %17
  br label %19

19:                                               ; preds = %18
  store i32 -173, ptr %5, align 4, !tbaa !24
  br label %20

20:                                               ; preds = %19, %13
  %21 = load i32, ptr %5, align 4, !tbaa !24
  %22 = icmp eq i32 %21, 0
  br i1 %22, label %23, label %26

23:                                               ; preds = %20
  %24 = load ptr, ptr %3, align 8, !tbaa !32
  %25 = call i32 @wc_FileLoad(ptr noundef %24, ptr noundef %6, ptr noundef %7, ptr noundef null)
  store i32 %25, ptr %5, align 4, !tbaa !24
  br label %26

26:                                               ; preds = %23, %20
  %27 = load i32, ptr %5, align 4, !tbaa !24
  %28 = icmp eq i32 %27, 0
  br i1 %28, label %29, label %46

29:                                               ; preds = %26
  %30 = load ptr, ptr %4, align 8, !tbaa !48
  %31 = load ptr, ptr %30, align 8, !tbaa !7
  %32 = icmp eq ptr %31, null
  br i1 %32, label %33, label %45

33:                                               ; preds = %29
  %34 = call ptr @wc_PKCS12_new()
  store ptr %34, ptr %8, align 8, !tbaa !7
  %35 = load ptr, ptr %8, align 8, !tbaa !7
  %36 = icmp eq ptr %35, null
  br i1 %36, label %37, label %41

37:                                               ; preds = %33
  br label %38

38:                                               ; preds = %37
  br label %39

39:                                               ; preds = %38
  br label %40

40:                                               ; preds = %39
  store i32 -125, ptr %5, align 4, !tbaa !24
  br label %44

41:                                               ; preds = %33
  %42 = load ptr, ptr %8, align 8, !tbaa !7
  %43 = load ptr, ptr %4, align 8, !tbaa !48
  store ptr %42, ptr %43, align 8, !tbaa !7
  store i32 0, ptr %9, align 4, !tbaa !24
  br label %44

44:                                               ; preds = %41, %40
  br label %45

45:                                               ; preds = %44, %29
  br label %46

46:                                               ; preds = %45, %26
  %47 = load i32, ptr %5, align 4, !tbaa !24
  %48 = icmp eq i32 %47, 0
  br i1 %48, label %49, label %63

49:                                               ; preds = %46
  %50 = load ptr, ptr %6, align 8, !tbaa !32
  %51 = load i64, ptr %7, align 8, !tbaa !50
  %52 = trunc i64 %51 to i32
  %53 = load ptr, ptr %4, align 8, !tbaa !48
  %54 = load ptr, ptr %53, align 8, !tbaa !7
  %55 = call i32 @wc_d2i_PKCS12(ptr noundef %50, i32 noundef %52, ptr noundef %54)
  store i32 %55, ptr %5, align 4, !tbaa !24
  %56 = load i32, ptr %5, align 4, !tbaa !24
  %57 = icmp ne i32 %56, 0
  br i1 %57, label %58, label %62

58:                                               ; preds = %49
  br label %59

59:                                               ; preds = %58
  br label %60

60:                                               ; preds = %59
  br label %61

61:                                               ; preds = %60
  br label %62

62:                                               ; preds = %61, %49
  br label %63

63:                                               ; preds = %62, %46
  %64 = load i32, ptr %5, align 4, !tbaa !24
  %65 = icmp ne i32 %64, 0
  br i1 %65, label %66, label %77

66:                                               ; preds = %63
  %67 = load i32, ptr %9, align 4, !tbaa !24
  %68 = icmp eq i32 %67, 0
  br i1 %68, label %69, label %77

69:                                               ; preds = %66
  %70 = load ptr, ptr %4, align 8, !tbaa !48
  %71 = load ptr, ptr %70, align 8, !tbaa !7
  %72 = icmp ne ptr %71, null
  br i1 %72, label %73, label %77

73:                                               ; preds = %69
  %74 = load ptr, ptr %4, align 8, !tbaa !48
  %75 = load ptr, ptr %74, align 8, !tbaa !7
  call void @wc_PKCS12_free(ptr noundef %75)
  %76 = load ptr, ptr %4, align 8, !tbaa !48
  store ptr null, ptr %76, align 8, !tbaa !7
  br label %77

77:                                               ; preds = %73, %69, %66, %63
  br label %78

78:                                               ; preds = %77
  call void @llvm.lifetime.start.p0(i64 8, ptr %10) #7
  %79 = load ptr, ptr %6, align 8, !tbaa !32
  store ptr %79, ptr %10, align 8, !tbaa !3
  %80 = load ptr, ptr %10, align 8, !tbaa !3
  %81 = icmp ne ptr %80, null
  br i1 %81, label %82, label %84

82:                                               ; preds = %78
  %83 = load ptr, ptr %10, align 8, !tbaa !3
  call void @wolfSSL_Free(ptr noundef %83)
  br label %84

84:                                               ; preds = %82, %78
  call void @llvm.lifetime.end.p0(i64 8, ptr %10) #7
  br label %85

85:                                               ; preds = %84
  br label %86

86:                                               ; preds = %85
  br label %87

87:                                               ; preds = %86
  br label %88

88:                                               ; preds = %87
  br label %89

89:                                               ; preds = %88
  %90 = load i32, ptr %5, align 4, !tbaa !24
  call void @llvm.lifetime.end.p0(i64 4, ptr %9) #7
  call void @llvm.lifetime.end.p0(i64 8, ptr %8) #7
  call void @llvm.lifetime.end.p0(i64 8, ptr %7) #7
  call void @llvm.lifetime.end.p0(i64 8, ptr %6) #7
  call void @llvm.lifetime.end.p0(i64 4, ptr %5) #7
  ret i32 %90
}