; Function Attrs: nounwind uwtable
define i32 @wc_d2i_PKCS12_fp(ptr noundef %0, ptr noundef captures(address_is_null) %1) local_unnamed_addr #0 {
  %3 = alloca ptr, align 8
  %4 = alloca i64, align 8
  call void @llvm.lifetime.start.p0(i64 8, ptr nonnull %3) #9
  store ptr null, ptr %3, align 8, !tbaa !39
  call void @llvm.lifetime.start.p0(i64 8, ptr nonnull %4) #9
  store i64 0, ptr %4, align 8, !tbaa !40
  %.not = icmp eq ptr %1, null
  br i1 %.not, label %.thread27.thread, label %5

5:                                                ; preds = %2
  %6 = call i32 @wc_FileLoad(ptr noundef %0, ptr noundef nonnull %3, ptr noundef nonnull %4, ptr noundef null) #9
  %7 = icmp eq i32 %6, 0
  br i1 %7, label %8, label %.thread27

8:                                                ; preds = %5
  %9 = load ptr, ptr %1, align 8, !tbaa !42
  %10 = icmp eq ptr %9, null
  br i1 %10, label %11, label %15

11:                                               ; preds = %8
  %12 = call ptr @wolfSSL_Malloc(i64 noundef 32) #9
  %13 = icmp eq ptr %12, null
  br i1 %13, label %.thread27, label %14

14:                                               ; preds = %11
  call void @llvm.memset.p0.i64(ptr noundef nonnull align 8 dereferenceable(32) %12, i8 0, i64 32, i1 false)
  store ptr %12, ptr %1, align 8, !tbaa !42
  br label %15

15:                                               ; preds = %8, %14
  %16 = phi ptr [ %9, %8 ], [ %12, %14 ]
  %17 = load ptr, ptr %3, align 8, !tbaa !39
  %18 = load i64, ptr %4, align 8, !tbaa !40
  %19 = trunc i64 %18 to i32
  %20 = call i32 @wc_d2i_PKCS12(ptr noundef %17, i32 noundef %19, ptr noundef nonnull %16)
  %21 = icmp ne i32 %20, 0
  %or.cond = and i1 %10, %21
  br i1 %or.cond, label %22, label %.thread27

22:                                               ; preds = %15
  %23 = load ptr, ptr %1, align 8, !tbaa !42
  %.not23 = icmp eq ptr %23, null
  br i1 %.not23, label %.thread27, label %24

24:                                               ; preds = %22
  call void @wc_PKCS12_free(ptr noundef nonnull %23)
  store ptr null, ptr %1, align 8, !tbaa !42
  br label %.thread27

.thread27:                                        ; preds = %11, %5, %15, %22, %24
  %.330.ph = phi i32 [ -125, %11 ], [ %6, %5 ], [ %20, %24 ], [ %20, %22 ], [ %20, %15 ]
  %.pr = load ptr, ptr %3, align 8, !tbaa !39
  %.not24 = icmp eq ptr %.pr, null
  br i1 %.not24, label %.thread27.thread, label %25

25:                                               ; preds = %.thread27
  call void @wolfSSL_Free(ptr noundef nonnull %.pr) #9
  br label %.thread27.thread

.thread27.thread:                                 ; preds = %2, %25, %.thread27
  %.33034 = phi i32 [ %.330.ph, %25 ], [ %.330.ph, %.thread27 ], [ -173, %2 ]
  call void @llvm.lifetime.end.p0(i64 8, ptr nonnull %4) #9
  call void @llvm.lifetime.end.p0(i64 8, ptr nonnull %3) #9
  ret i32 %.33034
}